target datalayout = "e-m:e-p270:32:32-p271:32:32-p272:64:64-i64:64-i128:128-f80:128-n8:16:32:64-S128"
target triple = "x86_64-pc-linux-gnu"

%"class.icu_77::MaybeStackArray" = type <{ ptr, i32, i8, [40 x i8], [3 x i8] }>
%"class.icu_77::StringPiece" = type <{ ptr, i32, [4 x i8] }>
%"class.icu_77::UDataPathIterator" = type <{ ptr, ptr, ptr, %"class.icu_77::StringPiece", i32, [4 x i8], %"class.icu_77::CharString", %"class.icu_77::CharString", %"class.icu_77::CharString", i8, [7 x i8] }>
%"class.icu_77::CharString" = type { %"class.icu_77::MaybeStackArray", i32, [4 x i8] }

@.str = private unnamed_addr constant [1 x i8] zeroinitializer, align 1
@_ZN6icu_7715MaybeStackArrayIcLi40EEC1Ev = weak_odr unnamed_addr alias void (ptr), ptr @_ZN6icu_7715MaybeStackArrayIcLi40EEC2Ev
@_ZN6icu_7715MaybeStackArrayIcLi40EED1Ev = weak_odr unnamed_addr alias void (ptr), ptr @_ZN6icu_7715MaybeStackArrayIcLi40EED2Ev

; Function Attrs: mustprogress nounwind uwtable
define weak_odr noundef ptr @_ZNK6icu_7715MaybeStackArrayIcLi40EE8getAliasEv(ptr noundef nonnull align 8 dereferenceable(53) %0) #0 comdat align 2 {
  %2 = alloca ptr, align 8
  store ptr %0, ptr %2, align 8, !tbaa !3
  %3 = load ptr, ptr %2, align 8
  %4 = getelementptr inbounds nuw %"class.icu_77::MaybeStackArray", ptr %3, i32 0, i32 0
  %5 = load ptr, ptr %4, align 8, !tbaa !8
  ret ptr %5
}

; Function Attrs: mustprogress nounwind uwtable
define linkonce_odr noundef i32 @_ZNK6icu_7711StringPiece6lengthEv(ptr noundef nonnull align 8 dereferenceable(12) %0) #0 comdat align 2 {
  %2 = alloca ptr, align 8
  store ptr %0, ptr %2, align 8, !tbaa !34
  %3 = load ptr, ptr %2, align 8
  %4 = getelementptr inbounds nuw %"class.icu_77::StringPiece", ptr %3, i32 0, i32 1
  %5 = load i32, ptr %4, align 8, !tbaa !37
  ret i32 %5
}

; Function Attrs: mustprogress nounwind uwtable
define linkonce_odr noundef ptr @_ZNK6icu_7711StringPiece4dataEv(ptr noundef nonnull align 8 dereferenceable(12) %0) #0 comdat align 2 {
  %2 = alloca ptr, align 8
  store ptr %0, ptr %2, align 8, !tbaa !34
  %3 = load ptr, ptr %2, align 8
  %4 = getelementptr inbounds nuw %"class.icu_77::StringPiece", ptr %3, i32 0, i32 0
  %5 = load ptr, ptr %4, align 8, !tbaa !36
  ret ptr %5
}

; Function Attrs: mustprogress nounwind uwtable
define weak_odr noundef nonnull align 1 dereferenceable(1) ptr @_ZN6icu_7715MaybeStackArrayIcLi40EEixEl(ptr noundef nonnull align 8 dereferenceable(53) %0, i64 noundef %1) #0 comdat align 2 {
  %3 = alloca ptr, align 8
  %4 = alloca i64, align 8
  store ptr %0, ptr %3, align 8, !tbaa !3
  store i64 %1, ptr %4, align 8, !tbaa !18
  %5 = load ptr, ptr %3, align 8
  %6 = getelementptr inbounds nuw %"class.icu_77::MaybeStackArray", ptr %5, i32 0, i32 0
  %7 = load ptr, ptr %6, align 8, !tbaa !8
  %8 = load i64, ptr %4, align 8, !tbaa !18
  %9 = getelementptr inbounds i8, ptr %7, i64 %8
  ret ptr %9
}

; Function Attrs: mustprogress nounwind uwtable
define linkonce_odr void @_ZN6icu_7710CharStringD2Ev(ptr noundef nonnull align 8 dereferenceable(60) %0) unnamed_addr #0 comdat align 2 {
  %2 = alloca ptr, align 8
  store ptr %0, ptr %2, align 8, !tbaa !38
  %3 = load ptr, ptr %2, align 8
  %4 = getelementptr inbounds nuw %"class.icu_77::CharString", ptr %3, i32 0, i32 0
  call void @_ZN6icu_7715MaybeStackArrayIcLi40EED1Ev(ptr noundef nonnull align 8 dereferenceable(53) %4) #12
  ret void
}

; Function Attrs: mustprogress nounwind uwtable
define linkonce_odr noundef ptr @_ZN6icu_7710CharString4dataEv(ptr noundef nonnull align 8 dereferenceable(60) %0) #0 comdat align 2 {
  %2 = alloca ptr, align 8
  store ptr %0, ptr %2, align 8, !tbaa !38
  %3 = load ptr, ptr %2, align 8
  %4 = getelementptr inbounds nuw %"class.icu_77::CharString", ptr %3, i32 0, i32 0
  %5 = call noundef ptr @_ZNK6icu_7715MaybeStackArrayIcLi40EE8getAliasEv(ptr noundef nonnull align 8 dereferenceable(53) %4)
  ret ptr %5
}

; Function Attrs: mustprogress nounwind uwtable
define internal noundef ptr @_ZL12findBasenamePKc(ptr noundef %0) #0 {
  %2 = alloca ptr, align 8
  %3 = alloca ptr, align 8
  %4 = alloca ptr, align 8
  %5 = alloca i32, align 4
  store ptr %0, ptr %3, align 8, !tbaa !17
  call void @llvm.lifetime.start.p0(i64 8, ptr %4) #12
  %6 = load ptr, ptr %3, align 8, !tbaa !17
  %7 = call noundef ptr @strrchr(ptr noundef %6, i32 noundef 47) #15
  store ptr %7, ptr %4, align 8, !tbaa !17
  %8 = load ptr, ptr %4, align 8, !tbaa !17
  %9 = icmp eq ptr %8, null
  br i1 %9, label %10, label %12

10:                                               ; preds = %1
  %11 = load ptr, ptr %3, align 8, !tbaa !17
  store ptr %11, ptr %2, align 8
  store i32 1, ptr %5, align 4
  br label %15

12:                                               ; preds = %1
  %13 = load ptr, ptr %4, align 8, !tbaa !17
  %14 = getelementptr inbounds i8, ptr %13, i64 1
  store ptr %14, ptr %2, align 8
  store i32 1, ptr %5, align 4
  br label %15

15:                                               ; preds = %12, %10
  call void @llvm.lifetime.end.p0(i64 8, ptr %4) #12
  %16 = load ptr, ptr %2, align 8
  ret ptr %16
}

; Function Attrs: mustprogress uwtable
define linkonce_odr noundef nonnull align 8 dereferenceable(60) ptr @_ZN6icu_7710CharString6appendENS_11StringPieceER10UErrorCode(ptr noundef nonnull align 8 dereferenceable(60) %0, ptr %1, i32 %2, ptr noundef nonnull align 4 dereferenceable(4) %3) #1 comdat align 2 {
  %5 = alloca %"class.icu_77::StringPiece", align 8
  %6 = alloca ptr, align 8
  %7 = alloca ptr, align 8
  %8 = getelementptr inbounds nuw { ptr, i32 }, ptr %5, i32 0, i32 0
  store ptr %1, ptr %8, align 8
  %9 = getelementptr inbounds nuw { ptr, i32 }, ptr %5, i32 0, i32 1
  store i32 %2, ptr %9, align 8
  store ptr %0, ptr %6, align 8, !tbaa !38
  store ptr %3, ptr %7, align 8, !tbaa !22
  %10 = load ptr, ptr %6, align 8
  %11 = call noundef ptr @_ZNK6icu_7711StringPiece4dataEv(ptr noundef nonnull align 8 dereferenceable(12) %5)
  %12 = call noundef i32 @_ZNK6icu_7711StringPiece6lengthEv(ptr noundef nonnull align 8 dereferenceable(12) %5)
  %13 = load ptr, ptr %7, align 8, !tbaa !22
  %14 = call noundef nonnull align 8 dereferenceable(60) ptr @_ZN6icu_7710CharString6appendEPKciR10UErrorCode(ptr noundef nonnull align 8 dereferenceable(60) %10, ptr noundef %11, i32 noundef %12, ptr noundef nonnull align 4 dereferenceable(4) %13)
  ret ptr %14
}

; Function Attrs: mustprogress uwtable
define linkonce_odr void @_ZN6icu_7710CharStringC2Ev(ptr noundef nonnull align 8 dereferenceable(60) %0) unnamed_addr #1 comdat align 2 {
  %2 = alloca ptr, align 8
  store ptr %0, ptr %2, align 8, !tbaa !38
  %3 = load ptr, ptr %2, align 8
  %4 = getelementptr inbounds nuw %"class.icu_77::CharString", ptr %3, i32 0, i32 0
  call void @_ZN6icu_7715MaybeStackArrayIcLi40EEC1Ev(ptr noundef nonnull align 8 dereferenceable(53) %4)
  %5 = getelementptr inbounds nuw %"class.icu_77::CharString", ptr %3, i32 0, i32 1
  store i32 0, ptr %5, align 8, !tbaa !40
  %6 = getelementptr inbounds nuw %"class.icu_77::CharString", ptr %3, i32 0, i32 0
  %7 = call noundef nonnull align 1 dereferenceable(1) ptr @_ZN6icu_7715MaybeStackArrayIcLi40EEixEl(ptr noundef nonnull align 8 dereferenceable(53) %6, i64 noundef 0)
  store i8 0, ptr %7, align 1, !tbaa !25
  ret void
}

; Function Attrs: mustprogress nounwind uwtable
define linkonce_odr void @_ZN6icu_7711StringPieceC2Ev(ptr noundef nonnull align 8 dereferenceable(12) %0) unnamed_addr #0 comdat align 2 {
  %2 = alloca ptr, align 8
  store ptr %0, ptr %2, align 8, !tbaa !34
  %3 = load ptr, ptr %2, align 8
  %4 = getelementptr inbounds nuw %"class.icu_77::StringPiece", ptr %3, i32 0, i32 0
  store ptr null, ptr %4, align 8, !tbaa !36
  %5 = getelementptr inbounds nuw %"class.icu_77::StringPiece", ptr %3, i32 0, i32 1
  store i32 0, ptr %5, align 8, !tbaa !37
  ret void
}

; Function Attrs: mustprogress uwtable
define void @_ZN6icu_7717UDataPathIteratorC2EPKcS2_S2_S2_aP10UErrorCode(ptr noundef nonnull align 8 dereferenceable(241) %0, ptr noundef %1, ptr noundef %2, ptr noundef %3, ptr noundef %4, i8 noundef signext %5, ptr noundef %6) unnamed_addr #1 align 2 personality ptr @__gxx_personality_v0 {
  %8 = alloca ptr, align 8
  %9 = alloca ptr, align 8
  %10 = alloca ptr, align 8
  %11 = alloca ptr, align 8
  %12 = alloca ptr, align 8
  %13 = alloca i8, align 1
  %14 = alloca ptr, align 8
  %15 = alloca ptr, align 8
  %16 = alloca i32, align 4
  %17 = alloca %"class.icu_77::StringPiece", align 8
  %18 = alloca %"class.icu_77::StringPiece", align 8
  %19 = alloca %"class.icu_77::StringPiece", align 8
  store ptr %0, ptr %8, align 8, !tbaa !23
  store ptr %1, ptr %9, align 8, !tbaa !17
  store ptr %2, ptr %10, align 8, !tbaa !17
  store ptr %3, ptr %11, align 8, !tbaa !17
  store ptr %4, ptr %12, align 8, !tbaa !17
  store i8 %5, ptr %13, align 1, !tbaa !25
  store ptr %6, ptr %14, align 8, !tbaa !22
  %20 = load ptr, ptr %8, align 8
  %21 = getelementptr inbounds nuw %"class.icu_77::UDataPathIterator", ptr %20, i32 0, i32 3
  call void @_ZN6icu_7711StringPieceC2Ev(ptr noundef nonnull align 8 dereferenceable(12) %21)
  %22 = getelementptr inbounds nuw %"class.icu_77::UDataPathIterator", ptr %20, i32 0, i32 6
  call void @_ZN6icu_7710CharStringC2Ev(ptr noundef nonnull align 8 dereferenceable(60) %22)
  %23 = getelementptr inbounds nuw %"class.icu_77::UDataPathIterator", ptr %20, i32 0, i32 7
  invoke void @_ZN6icu_7710CharStringC2Ev(ptr noundef nonnull align 8 dereferenceable(60) %23)
          to label %24 unwind label %33

24:                                               ; preds = %7
  %25 = getelementptr inbounds nuw %"class.icu_77::UDataPathIterator", ptr %20, i32 0, i32 8
  invoke void @_ZN6icu_7710CharStringC2Ev(ptr noundef nonnull align 8 dereferenceable(60) %25)
          to label %26 unwind label %37

26:                                               ; preds = %24
  %27 = load ptr, ptr %9, align 8, !tbaa !17
  %28 = icmp eq ptr %27, null
  br i1 %28, label %29, label %45

29:                                               ; preds = %26
  %30 = invoke ptr @u_getDataDirectory_77()
          to label %31 unwind label %41

31:                                               ; preds = %29
  %32 = getelementptr inbounds nuw %"class.icu_77::UDataPathIterator", ptr %20, i32 0, i32 0
  store ptr %30, ptr %32, align 8, !tbaa !26
  br label %48

33:                                               ; preds = %7
  %34 = landingpad { ptr, i32 }
          cleanup
  %35 = extractvalue { ptr, i32 } %34, 0
  store ptr %35, ptr %15, align 8
  %36 = extractvalue { ptr, i32 } %34, 1
  store i32 %36, ptr %16, align 4
  br label %123

37:                                               ; preds = %24
  %38 = landingpad { ptr, i32 }
          cleanup
  %39 = extractvalue { ptr, i32 } %38, 0
  store ptr %39, ptr %15, align 8
  %40 = extractvalue { ptr, i32 } %38, 1
  store i32 %40, ptr %16, align 4
  br label %122

41:                                               ; preds = %95, %83, %65, %57, %55, %51, %29
  %42 = landingpad { ptr, i32 }
          cleanup
  %43 = extractvalue { ptr, i32 } %42, 0
  store ptr %43, ptr %15, align 8
  %44 = extractvalue { ptr, i32 } %42, 1
  store i32 %44, ptr %16, align 4
  br label %121

45:                                               ; preds = %26
  %46 = load ptr, ptr %9, align 8, !tbaa !17
  %47 = getelementptr inbounds nuw %"class.icu_77::UDataPathIterator", ptr %20, i32 0, i32 0
  store ptr %46, ptr %47, align 8, !tbaa !26
  br label %48

48:                                               ; preds = %45, %31
  %49 = load ptr, ptr %10, align 8, !tbaa !17
  %50 = icmp ne ptr %49, null
  br i1 %50, label %51, label %65

51:                                               ; preds = %48
  %52 = getelementptr inbounds nuw %"class.icu_77::UDataPathIterator", ptr %20, i32 0, i32 8
  %53 = load ptr, ptr %14, align 8, !tbaa !22
  %54 = invoke noundef nonnull align 8 dereferenceable(60) ptr @_ZN6icu_7710CharString6appendEcR10UErrorCode(ptr noundef nonnull align 8 dereferenceable(60) %52, i8 noundef signext 47, ptr noundef nonnull align 4 dereferenceable(4) %53)
          to label %55 unwind label %41

55:                                               ; preds = %51
  %56 = load ptr, ptr %10, align 8, !tbaa !17
  invoke void @_ZN6icu_7711StringPieceC1EPKc(ptr noundef nonnull align 8 dereferenceable(12) %17, ptr noundef %56)
          to label %57 unwind label %41

57:                                               ; preds = %55
  %58 = load ptr, ptr %14, align 8, !tbaa !22
  %59 = getelementptr inbounds nuw { ptr, i32 }, ptr %17, i32 0, i32 0
  %60 = load ptr, ptr %59, align 8
  %61 = getelementptr inbounds nuw { ptr, i32 }, ptr %17, i32 0, i32 1
  %62 = load i32, ptr %61, align 8
  %63 = invoke noundef nonnull align 8 dereferenceable(60) ptr @_ZN6icu_7710CharString6appendENS_11StringPieceER10UErrorCode(ptr noundef nonnull align 8 dereferenceable(60) %54, ptr %60, i32 %62, ptr noundef nonnull align 4 dereferenceable(4) %58)
          to label %64 unwind label %41

64:                                               ; preds = %57
  br label %65

65:                                               ; preds = %64, %48
  %66 = load ptr, ptr %11, align 8, !tbaa !17
  %67 = invoke noundef ptr @_ZL12findBasenamePKc(ptr noundef %66)
          to label %68 unwind label %41

68:                                               ; preds = %65
  %69 = getelementptr inbounds nuw %"class.icu_77::UDataPathIterator", ptr %20, i32 0, i32 2
  store ptr %67, ptr %69, align 8, !tbaa !30
  %70 = getelementptr inbounds nuw %"class.icu_77::UDataPathIterator", ptr %20, i32 0, i32 2
  %71 = load ptr, ptr %70, align 8, !tbaa !30
  %72 = call i64 @strlen(ptr noundef %71) #15
  %73 = trunc i64 %72 to i32
  %74 = getelementptr inbounds nuw %"class.icu_77::UDataPathIterator", ptr %20, i32 0, i32 4
  store i32 %73, ptr %74, align 8, !tbaa !31
  %75 = getelementptr inbounds nuw %"class.icu_77::UDataPathIterator", ptr %20, i32 0, i32 2
  %76 = load ptr, ptr %75, align 8, !tbaa !30
  %77 = load ptr, ptr %11, align 8, !tbaa !17
  %78 = icmp eq ptr %76, %77
  br i1 %78, label %79, label %83

79:                                               ; preds = %68
  %80 = getelementptr inbounds nuw %"class.icu_77::UDataPathIterator", ptr %20, i32 0, i32 0
  %81 = load ptr, ptr %80, align 8, !tbaa !26
  %82 = getelementptr inbounds nuw %"class.icu_77::UDataPathIterator", ptr %20, i32 0, i32 1
  store ptr %81, ptr %82, align 8, !tbaa !32
  br label %100

83:                                               ; preds = %68
  %84 = getelementptr inbounds nuw %"class.icu_77::UDataPathIterator", ptr %20, i32 0, i32 6
  %85 = load ptr, ptr %11, align 8, !tbaa !17
  %86 = getelementptr inbounds nuw %"class.icu_77::UDataPathIterator", ptr %20, i32 0, i32 2
  %87 = load ptr, ptr %86, align 8, !tbaa !30
  %88 = load ptr, ptr %11, align 8, !tbaa !17
  %89 = ptrtoint ptr %87 to i64
  %90 = ptrtoint ptr %88 to i64
  %91 = sub i64 %89, %90
  %92 = trunc i64 %91 to i32
  %93 = load ptr, ptr %14, align 8, !tbaa !22
  %94 = invoke noundef nonnull align 8 dereferenceable(60) ptr @_ZN6icu_7710CharString6appendEPKciR10UErrorCode(ptr noundef nonnull align 8 dereferenceable(60) %84, ptr noundef %85, i32 noundef %92, ptr noundef nonnull align 4 dereferenceable(4) %93)
          to label %95 unwind label %41

95:                                               ; preds = %83
  %96 = getelementptr inbounds nuw %"class.icu_77::UDataPathIterator", ptr %20, i32 0, i32 6
  %97 = invoke noundef ptr @_ZN6icu_7710CharString4dataEv(ptr noundef nonnull align 8 dereferenceable(60) %96)
          to label %98 unwind label %41

98:                                               ; preds = %95
  %99 = getelementptr inbounds nuw %"class.icu_77::UDataPathIterator", ptr %20, i32 0, i32 1
  store ptr %97, ptr %99, align 8, !tbaa !32
  br label %100

100:                                              ; preds = %98, %79
  %101 = load ptr, ptr %12, align 8, !tbaa !17
  %102 = icmp ne ptr %101, null
  br i1 %102, label %103, label %111

103:                                              ; preds = %100
  call void @llvm.lifetime.start.p0(i64 16, ptr %18) #12
  %104 = load ptr, ptr %12, align 8, !tbaa !17
  invoke void @_ZN6icu_7711StringPieceC1EPKc(ptr noundef nonnull align 8 dereferenceable(12) %18, ptr noundef %104)
          to label %105 unwind label %107

105:                                              ; preds = %103
  %106 = getelementptr inbounds nuw %"class.icu_77::UDataPathIterator", ptr %20, i32 0, i32 3
  call void @llvm.memcpy.p0.p0.i64(ptr align 8 %106, ptr align 8 %18, i64 12, i1 false)
  call void @llvm.lifetime.end.p0(i64 16, ptr %18) #12
  br label %118

107:                                              ; preds = %103
  %108 = landingpad { ptr, i32 }
          cleanup
  %109 = extractvalue { ptr, i32 } %108, 0
  store ptr %109, ptr %15, align 8
  %110 = extractvalue { ptr, i32 } %108, 1
  store i32 %110, ptr %16, align 4
  call void @llvm.lifetime.end.p0(i64 16, ptr %18) #12
  br label %121

111:                                              ; preds = %100
  call void @llvm.lifetime.start.p0(i64 16, ptr %19) #12
  invoke void @_ZN6icu_7711StringPieceC1EPKc(ptr noundef nonnull align 8 dereferenceable(12) %19, ptr noundef @.str)
          to label %112 unwind label %114

112:                                              ; preds = %111
  %113 = getelementptr inbounds nuw %"class.icu_77::UDataPathIterator", ptr %20, i32 0, i32 3
  call void @llvm.memcpy.p0.p0.i64(ptr align 8 %113, ptr align 8 %19, i64 12, i1 false)
  call void @llvm.lifetime.end.p0(i64 16, ptr %19) #12
  br label %118

114:                                              ; preds = %111
  %115 = landingpad { ptr, i32 }
          cleanup
  %116 = extractvalue { ptr, i32 } %115, 0
  store ptr %116, ptr %15, align 8
  %117 = extractvalue { ptr, i32 } %115, 1
  store i32 %117, ptr %16, align 4
  call void @llvm.lifetime.end.p0(i64 16, ptr %19) #12
  br label %121

118:                                              ; preds = %112, %105
  %119 = load i8, ptr %13, align 1, !tbaa !25
  %120 = getelementptr inbounds nuw %"class.icu_77::UDataPathIterator", ptr %20, i32 0, i32 9
  store i8 %119, ptr %120, align 8, !tbaa !33
  ret void

121:                                              ; preds = %114, %107, %41
  call void @_ZN6icu_7710CharStringD2Ev(ptr noundef nonnull align 8 dereferenceable(60) %25) #12
  br label %122

122:                                              ; preds = %121, %37
  call void @_ZN6icu_7710CharStringD2Ev(ptr noundef nonnull align 8 dereferenceable(60) %23) #12
  br label %123

123:                                              ; preds = %122, %33
  call void @_ZN6icu_7710CharStringD2Ev(ptr noundef nonnull align 8 dereferenceable(60) %22) #12
  br label %124

124:                                              ; preds = %123
  %125 = load ptr, ptr %15, align 8
  %126 = load i32, ptr %16, align 4
  %127 = insertvalue { ptr, i32 } poison, ptr %125, 0
  %128 = insertvalue { ptr, i32 } %127, i32 %126, 1
  resume { ptr, i32 } %128
}