; Function Attrs: mustprogress uwtable
define void @_ZN6icu_7717UDataPathIteratorC2EPKcS2_S2_S2_aP10UErrorCode(ptr noundef nonnull align 8 dereferenceable(241) initializes((24, 36)) %0, ptr noundef %1, ptr noundef %2, ptr noundef %3, ptr noundef %4, i8 noundef signext %5, ptr noundef %6) unnamed_addr #1 align 2 personality ptr @__gxx_personality_v0 {
  %8 = alloca %"class.icu_77::StringPiece", align 8
  %9 = alloca %"class.icu_77::StringPiece", align 8
  %10 = alloca %"class.icu_77::StringPiece", align 8
  %11 = getelementptr inbounds nuw i8, ptr %0, i64 24
  store ptr null, ptr %11, align 8, !tbaa !15
  %12 = getelementptr inbounds nuw i8, ptr %0, i64 32
  store i32 0, ptr %12, align 8, !tbaa !17
  %13 = getelementptr inbounds nuw i8, ptr %0, i64 48
  tail call void @_ZN6icu_7715MaybeStackArrayIcLi40EEC1Ev(ptr noundef nonnull align 8 dereferenceable(60) %13)
  %14 = getelementptr inbounds nuw i8, ptr %0, i64 104
  store i32 0, ptr %14, align 8, !tbaa !18
  %15 = load ptr, ptr %13, align 8, !tbaa !3
  store i8 0, ptr %15, align 1, !tbaa !20
  %16 = getelementptr inbounds nuw i8, ptr %0, i64 112
  invoke void @_ZN6icu_7715MaybeStackArrayIcLi40EEC1Ev(ptr noundef nonnull align 8 dereferenceable(60) %16)
          to label %17 unwind label %27

17:                                               ; preds = %7
  %18 = getelementptr inbounds nuw i8, ptr %0, i64 168
  store i32 0, ptr %18, align 8, !tbaa !18
  %19 = load ptr, ptr %16, align 8, !tbaa !3
  store i8 0, ptr %19, align 1, !tbaa !20
  %20 = getelementptr inbounds nuw i8, ptr %0, i64 176
  invoke void @_ZN6icu_7715MaybeStackArrayIcLi40EEC1Ev(ptr noundef nonnull align 8 dereferenceable(60) %20)
          to label %21 unwind label %29

21:                                               ; preds = %17
  %22 = getelementptr inbounds nuw i8, ptr %0, i64 232
  store i32 0, ptr %22, align 8, !tbaa !18
  %23 = load ptr, ptr %20, align 8, !tbaa !3
  store i8 0, ptr %23, align 1, !tbaa !20
  %24 = icmp eq ptr %1, null
  br i1 %24, label %25, label %33

25:                                               ; preds = %21
  %26 = invoke ptr @u_getDataDirectory_77()
          to label %33 unwind label %31

27:                                               ; preds = %7
  %28 = landingpad { ptr, i32 }
          cleanup
  br label %70

29:                                               ; preds = %17
  %30 = landingpad { ptr, i32 }
          cleanup
  br label %69

31:                                               ; preds = %37, %50, %36, %34, %25
  %32 = landingpad { ptr, i32 }
          cleanup
  br label %68

33:                                               ; preds = %21, %25
  %storemerge = phi ptr [ %26, %25 ], [ %1, %21 ]
  store ptr %storemerge, ptr %0, align 8, !tbaa !21
  %.not = icmp eq ptr %2, null
  br i1 %.not, label %_ZN6icu_7710CharString6appendENS_11StringPieceER10UErrorCode.exit, label %34

34:                                               ; preds = %33
  %35 = invoke noundef nonnull align 8 dereferenceable(60) ptr @_ZN6icu_7710CharString6appendEcR10UErrorCode(ptr noundef nonnull align 8 dereferenceable(60) %20, i8 noundef signext 47, ptr noundef nonnull align 4 dereferenceable(4) %6)
          to label %36 unwind label %31

36:                                               ; preds = %34
  invoke void @_ZN6icu_7711StringPieceC1EPKc(ptr noundef nonnull align 8 dereferenceable(12) %8, ptr noundef nonnull %2)
          to label %37 unwind label %31

37:                                               ; preds = %36
  %38 = load ptr, ptr %8, align 8
  %39 = getelementptr inbounds nuw i8, ptr %8, i64 8
  %40 = load i32, ptr %39, align 8
  %41 = invoke noundef nonnull align 8 dereferenceable(60) ptr @_ZN6icu_7710CharString6appendEPKciR10UErrorCode(ptr noundef nonnull align 8 dereferenceable(60) %35, ptr noundef %38, i32 noundef %40, ptr noundef nonnull align 4 dereferenceable(4) %6)
          to label %_ZN6icu_7710CharString6appendENS_11StringPieceER10UErrorCode.exit unwind label %31

_ZN6icu_7710CharString6appendENS_11StringPieceER10UErrorCode.exit: ; preds = %37, %33
  %42 = call noundef ptr @strrchr(ptr noundef nonnull readonly dereferenceable(1) %3, i32 noundef 47) #18
  %43 = icmp eq ptr %42, null
  %44 = getelementptr inbounds nuw i8, ptr %42, i64 1
  %.0.i = select i1 %43, ptr %3, ptr %44
  %45 = getelementptr inbounds nuw i8, ptr %0, i64 16
  store ptr %.0.i, ptr %45, align 8, !tbaa !23
  %46 = call i64 @strlen(ptr noundef nonnull dereferenceable(1) %.0.i) #18
  %47 = trunc i64 %46 to i32
  %48 = getelementptr inbounds nuw i8, ptr %0, i64 40
  store i32 %47, ptr %48, align 8, !tbaa !24
  %49 = icmp eq ptr %.0.i, %3
  br i1 %49, label %56, label %50

50:                                               ; preds = %_ZN6icu_7710CharString6appendENS_11StringPieceER10UErrorCode.exit
  %51 = ptrtoint ptr %.0.i to i64
  %52 = ptrtoint ptr %3 to i64
  %53 = sub i64 %51, %52
  %54 = trunc i64 %53 to i32
  %55 = invoke noundef nonnull align 8 dereferenceable(60) ptr @_ZN6icu_7710CharString6appendEPKciR10UErrorCode(ptr noundef nonnull align 8 dereferenceable(60) %13, ptr noundef nonnull %3, i32 noundef %54, ptr noundef nonnull align 4 dereferenceable(4) %6)
          to label %56 unwind label %31

56:                                               ; preds = %50, %_ZN6icu_7710CharString6appendENS_11StringPieceER10UErrorCode.exit
  %.sink.in = phi ptr [ %0, %_ZN6icu_7710CharString6appendENS_11StringPieceER10UErrorCode.exit ], [ %13, %50 ]
  %.sink = load ptr, ptr %.sink.in, align 8, !tbaa !25
  %57 = getelementptr inbounds nuw i8, ptr %0, i64 8
  store ptr %.sink, ptr %57, align 8, !tbaa !26
  %.not24 = icmp eq ptr %4, null
  br i1 %.not24, label %62, label %58

58:                                               ; preds = %56
  call void @llvm.lifetime.start.p0(i64 16, ptr nonnull %9) #15
  invoke void @_ZN6icu_7711StringPieceC1EPKc(ptr noundef nonnull align 8 dereferenceable(12) %9, ptr noundef nonnull %4)
          to label %59 unwind label %60

59:                                               ; preds = %58
  call void @llvm.memcpy.p0.p0.i64(ptr noundef nonnull align 8 dereferenceable(12) %11, ptr noundef nonnull align 8 dereferenceable(12) %9, i64 12, i1 false)
  call void @llvm.lifetime.end.p0(i64 16, ptr nonnull %9) #15
  br label %66

60:                                               ; preds = %58
  %61 = landingpad { ptr, i32 }
          cleanup
  call void @llvm.lifetime.end.p0(i64 16, ptr nonnull %9) #15
  br label %68

62:                                               ; preds = %56
  call void @llvm.lifetime.start.p0(i64 16, ptr nonnull %10) #15
  invoke void @_ZN6icu_7711StringPieceC1EPKc(ptr noundef nonnull align 8 dereferenceable(12) %10, ptr noundef nonnull @.str)
          to label %63 unwind label %64

63:                                               ; preds = %62
  call void @llvm.memcpy.p0.p0.i64(ptr noundef nonnull align 8 dereferenceable(12) %11, ptr noundef nonnull align 8 dereferenceable(12) %10, i64 12, i1 false)
  call void @llvm.lifetime.end.p0(i64 16, ptr nonnull %10) #15
  br label %66

64:                                               ; preds = %62
  %65 = landingpad { ptr, i32 }
          cleanup
  call void @llvm.lifetime.end.p0(i64 16, ptr nonnull %10) #15
  br label %68

66:                                               ; preds = %63, %59
  %67 = getelementptr inbounds nuw i8, ptr %0, i64 240
  store i8 %5, ptr %67, align 8, !tbaa !27
  ret void

68:                                               ; preds = %64, %60, %31
  %.pn = phi { ptr, i32 } [ %61, %60 ], [ %65, %64 ], [ %32, %31 ]
  call void @_ZN6icu_7715MaybeStackArrayIcLi40EED1Ev(ptr noundef nonnull align 8 dereferenceable(60) %20) #15
  br label %69

69:                                               ; preds = %68, %29
  %.pn.pn = phi { ptr, i32 } [ %.pn, %68 ], [ %30, %29 ]
  call void @_ZN6icu_7715MaybeStackArrayIcLi40EED1Ev(ptr noundef nonnull align 8 dereferenceable(60) %16) #15
  br label %70

70:                                               ; preds = %69, %27
  %.pn.pn.pn = phi { ptr, i32 } [ %.pn.pn, %69 ], [ %28, %27 ]
  call void @_ZN6icu_7715MaybeStackArrayIcLi40EED1Ev(ptr noundef nonnull align 8 dereferenceable(60) %13) #15
  resume { ptr, i32 } %.pn.pn.pn
}